target datalayout = "e-m:e-p270:32:32-p271:32:32-p272:64:64-i64:64-i128:128-f80:128-n8:16:32:64-S128"
target triple = "x86_64-pc-linux-gnu"

%struct.timeval = type { i64, i64 }
%struct.per_transfer = type { ptr, ptr, ptr, ptr, ptr, i64, i64, i64, i64, %struct.timeval, %struct.timeval, ptr, i32, ptr, i32, %struct.ProgressData, %struct.OutStruct, %struct.OutStruct, %struct.OutStruct, %struct.HdrCbData, i64, i64, i64, i64, i64, i64, i64, i64, i8, i8, ptr, ptr, i8, i8, i8, i8, i8, i8 }
%struct.ProgressData = type { i32, i64, %struct.timeval, i32, ptr, i64, i32, i32, i32 }
%struct.OutStruct = type { ptr, i8, i8, i8, i8, ptr, i64, i64 }
%struct.HdrCbData = type { ptr, ptr, ptr, ptr, ptr, ptr, i8 }

@all_dlalready = internal global i64 0, align 8
@all_ulalready = internal global i64 0, align 8
@all_dltotal = internal global i64 0, align 8
@all_ultotal = internal global i64 0, align 8

; Function Attrs: nounwind uwtable
define dso_local void @progress_finalize(ptr noundef %0) #0 {
  %2 = alloca ptr, align 8
  store ptr %0, ptr %2, align 8, !tbaa !10
  %3 = load ptr, ptr %2, align 8, !tbaa !10
  %4 = getelementptr inbounds nuw %struct.per_transfer, ptr %3, i32 0, i32 23
  %5 = load i64, ptr %4, align 8, !tbaa !29
  %6 = load i64, ptr @all_dlalready, align 8, !tbaa !8
  %7 = add nsw i64 %6, %5
  store i64 %7, ptr @all_dlalready, align 8, !tbaa !8
  %8 = load ptr, ptr %2, align 8, !tbaa !10
  %9 = getelementptr inbounds nuw %struct.per_transfer, ptr %8, i32 0, i32 25
  %10 = load i64, ptr %9, align 8, !tbaa !31
  %11 = load i64, ptr @all_ulalready, align 8, !tbaa !8
  %12 = add nsw i64 %11, %10
  store i64 %12, ptr @all_ulalready, align 8, !tbaa !8
  %13 = load ptr, ptr %2, align 8, !tbaa !10
  %14 = getelementptr inbounds nuw %struct.per_transfer, ptr %13, i32 0, i32 28
  %15 = load i8, ptr %14, align 8, !tbaa !55, !range !33, !noundef !34
  %16 = trunc i8 %15 to i1
  br i1 %16, label %25, label %17

17:                                               ; preds = %1
  %18 = load ptr, ptr %2, align 8, !tbaa !10
  %19 = getelementptr inbounds nuw %struct.per_transfer, ptr %18, i32 0, i32 22
  %20 = load i64, ptr %19, align 8, !tbaa !28
  %21 = load i64, ptr @all_dltotal, align 8, !tbaa !8
  %22 = add nsw i64 %21, %20
  store i64 %22, ptr @all_dltotal, align 8, !tbaa !8
  %23 = load ptr, ptr %2, align 8, !tbaa !10
  %24 = getelementptr inbounds nuw %struct.per_transfer, ptr %23, i32 0, i32 28
  store i8 1, ptr %24, align 8, !tbaa !55
  br label %25

25:                                               ; preds = %17, %1
  %26 = load ptr, ptr %2, align 8, !tbaa !10
  %27 = getelementptr inbounds nuw %struct.per_transfer, ptr %26, i32 0, i32 29
  %28 = load i8, ptr %27, align 1, !tbaa !56, !range !33, !noundef !34
  %29 = trunc i8 %28 to i1
  br i1 %29, label %38, label %30

30:                                               ; preds = %25
  %31 = load ptr, ptr %2, align 8, !tbaa !10
  %32 = getelementptr inbounds nuw %struct.per_transfer, ptr %31, i32 0, i32 24
  %33 = load i64, ptr %32, align 8, !tbaa !30
  %34 = load i64, ptr @all_ultotal, align 8, !tbaa !8
  %35 = add nsw i64 %34, %33
  store i64 %35, ptr @all_ultotal, align 8, !tbaa !8
  %36 = load ptr, ptr %2, align 8, !tbaa !10
  %37 = getelementptr inbounds nuw %struct.per_transfer, ptr %36, i32 0, i32 29
  store i8 1, ptr %37, align 1, !tbaa !56
  br label %38

38:                                               ; preds = %30, %25
  ret void
}