; Function Attrs: mustprogress nofree norecurse nosync nounwind willreturn memory(readwrite, inaccessiblemem: none) uwtable
define dso_local void @progress_finalize(ptr noundef captures(none) %0) local_unnamed_addr #4 {
  %2 = getelementptr inbounds nuw i8, ptr %0, i64 408
  %3 = load i64, ptr %2, align 8, !tbaa !25
  %4 = load i64, ptr @all_dlalready, align 8, !tbaa !46
  %5 = add nsw i64 %4, %3
  store i64 %5, ptr @all_dlalready, align 8, !tbaa !46
  %6 = getelementptr inbounds nuw i8, ptr %0, i64 424
  %7 = load i64, ptr %6, align 8, !tbaa !27
  %8 = load i64, ptr @all_ulalready, align 8, !tbaa !46
  %9 = add nsw i64 %8, %7
  store i64 %9, ptr @all_ulalready, align 8, !tbaa !46
  %10 = getelementptr inbounds nuw i8, ptr %0, i64 448
  %11 = load i8, ptr %10, align 8, !tbaa !48, !range !29, !noundef !30
  %12 = trunc nuw i8 %11 to i1
  br i1 %12, label %18, label %13

13:                                               ; preds = %1
  %14 = getelementptr inbounds nuw i8, ptr %0, i64 400
  %15 = load i64, ptr %14, align 8, !tbaa !24
  %16 = load i64, ptr @all_dltotal, align 8, !tbaa !46
  %17 = add nsw i64 %16, %15
  store i64 %17, ptr @all_dltotal, align 8, !tbaa !46
  store i8 1, ptr %10, align 8, !tbaa !48
  br label %18

18:                                               ; preds = %13, %1
  %19 = getelementptr inbounds nuw i8, ptr %0, i64 449
  %20 = load i8, ptr %19, align 1, !tbaa !49, !range !29, !noundef !30
  %21 = trunc nuw i8 %20 to i1
  br i1 %21, label %27, label %22

22:                                               ; preds = %18
  %23 = getelementptr inbounds nuw i8, ptr %0, i64 416
  %24 = load i64, ptr %23, align 8, !tbaa !26
  %25 = load i64, ptr @all_ultotal, align 8, !tbaa !46
  %26 = add nsw i64 %25, %24
  store i64 %26, ptr @all_ultotal, align 8, !tbaa !46
  store i8 1, ptr %19, align 1, !tbaa !49
  br label %27

27:                                               ; preds = %22, %18
  ret void
}